; Function Attrs: nounwind uwtable
define internal i32 @ssl_calc_finished_tls_sha256(ptr noundef %0, ptr noundef %1, i32 noundef %2) #1 {
  %4 = alloca [32 x i8], align 16
  call void @llvm.lifetime.start.p0(i64 32, ptr nonnull %4) #26
  %5 = getelementptr inbounds nuw i8, ptr %0, i64 112
  %6 = load ptr, ptr %5, align 8, !tbaa !70
  %7 = getelementptr inbounds nuw i8, ptr %6, i64 1984
  %8 = call fastcc i32 @ssl_calc_finished_tls_generic(ptr noundef %0, ptr noundef nonnull %7, ptr noundef %4, i64 noundef 32, ptr noundef %1, i32 noundef %2)
  call void @llvm.lifetime.end.p0(i64 32, ptr nonnull %4) #26
  ret i32 %8
}